; Function Attrs: nofree nounwind uwtable
define void @Gia_ManPrintReached(ptr noundef readonly captures(none) %0, i32 noundef %1, ptr noundef readonly captures(none) %2) local_unnamed_addr #4 {
  %4 = sext i32 %1 to i64
  %5 = getelementptr inbounds i8, ptr %0, i64 %4
  %6 = load i8, ptr %5, align 1
  %7 = sext i8 %6 to i32
  %8 = tail call i32 (ptr, ...) @printf(ptr noundef nonnull dereferenceable(1) @.str.5, i32 noundef %1, i32 noundef %7)
  %9 = getelementptr i8, ptr %2, i64 4
  %.val11 = load i32, ptr %9, align 4
  %10 = icmp sgt i32 %.val11, 0
  br i1 %10, label %.lr.ph, label %.critedge

.lr.ph:                                           ; preds = %3
  %11 = getelementptr i8, ptr %2, i64 8
  br label %12

12:                                               ; preds = %.lr.ph, %12
  %indvars.iv = phi i64 [ 0, %.lr.ph ], [ %indvars.iv.next, %12 ]
  %.val10 = load ptr, ptr %11, align 8
  %13 = getelementptr inbounds nuw i32, ptr %.val10, i64 %indvars.iv
  %14 = load i32, ptr %13, align 4
  %15 = sext i32 %14 to i64
  %16 = getelementptr inbounds i8, ptr %0, i64 %15
  %17 = load i8, ptr %16, align 1
  %18 = sext i8 %17 to i32
  %19 = tail call i32 (ptr, ...) @printf(ptr noundef nonnull dereferenceable(1) @.str.6, i32 noundef %14, i32 noundef %18)
  %indvars.iv.next = add nuw nsw i64 %indvars.iv, 1
  %.val = load i32, ptr %9, align 4
  %20 = sext i32 %.val to i64
  %21 = icmp slt i64 %indvars.iv.next, %20
  br i1 %21, label %12, label %.critedge, !llvm.loop !14

.critedge:                                        ; preds = %12, %3
  %putchar = tail call i32 @putchar(i32 10)
  ret void
}